target datalayout = "e-m:e-p270:32:32-p271:32:32-p272:64:64-i64:64-i128:128-f80:128-n8:16:32:64-S128"
target triple = "x86_64-unknown-linux-gnu"

%struct.QCryptoBlockLUKSHeader = type { [6 x i8], i16, [32 x i8], [32 x i8], [32 x i8], i32, i32, [20 x i8], [32 x i8], i32, [40 x i8], [8 x %struct.QCryptoBlockLUKSKeySlot] }
%struct.QCryptoBlockLUKSKeySlot = type { i32, i32, [32 x i8], i32, i32 }

; Function Attrs: nounwind sspstrong uwtable
define internal void @cpu_to_be32s(ptr noundef %p) #0 {
entry:
  %p.addr = alloca ptr, align 8
  store ptr %p, ptr %p.addr, align 8
  br label %do.body

do.body:                                          ; preds = %entry
  %0 = load ptr, ptr %p.addr, align 8
  %1 = load i32, ptr %0, align 4
  %2 = call i32 @llvm.bswap.i32(i32 %1)
  %3 = load ptr, ptr %p.addr, align 8
  store i32 %2, ptr %3, align 4
  br label %do.end

do.end:                                           ; preds = %do.body
  ret void
}

; Function Attrs: nounwind sspstrong uwtable
define internal void @cpu_to_be16s(ptr noundef %p) #0 {
entry:
  %p.addr = alloca ptr, align 8
  store ptr %p, ptr %p.addr, align 8
  br label %do.body

do.body:                                          ; preds = %entry
  %0 = load ptr, ptr %p.addr, align 8
  %1 = load i16, ptr %0, align 2
  %2 = call i16 @llvm.bswap.i16(i16 %1)
  %3 = load ptr, ptr %p.addr, align 8
  store i16 %2, ptr %3, align 2
  br label %do.end

do.end:                                           ; preds = %do.body
  ret void
}

; Function Attrs: nounwind sspstrong uwtable
define dso_local void @qcrypto_block_luks_to_disk_endian(ptr noundef %hdr) #0 {
entry:
  %hdr.addr = alloca ptr, align 8
  %i = alloca i64, align 8
  store ptr %hdr, ptr %hdr.addr, align 8
  %0 = load ptr, ptr %hdr.addr, align 8
  %version = getelementptr inbounds %struct.QCryptoBlockLUKSHeader, ptr %0, i32 0, i32 1
  call void @cpu_to_be16s(ptr noundef %version)
  %1 = load ptr, ptr %hdr.addr, align 8
  %payload_offset_sector = getelementptr inbounds %struct.QCryptoBlockLUKSHeader, ptr %1, i32 0, i32 5
  call void @cpu_to_be32s(ptr noundef %payload_offset_sector)
  %2 = load ptr, ptr %hdr.addr, align 8
  %master_key_len = getelementptr inbounds %struct.QCryptoBlockLUKSHeader, ptr %2, i32 0, i32 6
  call void @cpu_to_be32s(ptr noundef %master_key_len)
  %3 = load ptr, ptr %hdr.addr, align 8
  %master_key_iterations = getelementptr inbounds %struct.QCryptoBlockLUKSHeader, ptr %3, i32 0, i32 9
  call void @cpu_to_be32s(ptr noundef %master_key_iterations)
  store i64 0, ptr %i, align 8
  br label %for.cond

for.cond:                                         ; preds = %for.inc, %entry
  %4 = load i64, ptr %i, align 8
  %cmp = icmp ult i64 %4, 8
  br i1 %cmp, label %for.body, label %for.end

for.body:                                         ; preds = %for.cond
  %5 = load ptr, ptr %hdr.addr, align 8
  %key_slots = getelementptr inbounds %struct.QCryptoBlockLUKSHeader, ptr %5, i32 0, i32 11
  %6 = load i64, ptr %i, align 8
  %arrayidx = getelementptr [8 x %struct.QCryptoBlockLUKSKeySlot], ptr %key_slots, i64 0, i64 %6
  %active = getelementptr inbounds %struct.QCryptoBlockLUKSKeySlot, ptr %arrayidx, i32 0, i32 0
  call void @cpu_to_be32s(ptr noundef %active)
  %7 = load ptr, ptr %hdr.addr, align 8
  %key_slots1 = getelementptr inbounds %struct.QCryptoBlockLUKSHeader, ptr %7, i32 0, i32 11
  %8 = load i64, ptr %i, align 8
  %arrayidx2 = getelementptr [8 x %struct.QCryptoBlockLUKSKeySlot], ptr %key_slots1, i64 0, i64 %8
  %iterations = getelementptr inbounds %struct.QCryptoBlockLUKSKeySlot, ptr %arrayidx2, i32 0, i32 1
  call void @cpu_to_be32s(ptr noundef %iterations)
  %9 = load ptr, ptr %hdr.addr, align 8
  %key_slots3 = getelementptr inbounds %struct.QCryptoBlockLUKSHeader, ptr %9, i32 0, i32 11
  %10 = load i64, ptr %i, align 8
  %arrayidx4 = getelementptr [8 x %struct.QCryptoBlockLUKSKeySlot], ptr %key_slots3, i64 0, i64 %10
  %key_offset_sector = getelementptr inbounds %struct.QCryptoBlockLUKSKeySlot, ptr %arrayidx4, i32 0, i32 3
  call void @cpu_to_be32s(ptr noundef %key_offset_sector)
  %11 = load ptr, ptr %hdr.addr, align 8
  %key_slots5 = getelementptr inbounds %struct.QCryptoBlockLUKSHeader, ptr %11, i32 0, i32 11
  %12 = load i64, ptr %i, align 8
  %arrayidx6 = getelementptr [8 x %struct.QCryptoBlockLUKSKeySlot], ptr %key_slots5, i64 0, i64 %12
  %stripes = getelementptr inbounds %struct.QCryptoBlockLUKSKeySlot, ptr %arrayidx6, i32 0, i32 4
  call void @cpu_to_be32s(ptr noundef %stripes)
  br label %for.inc

for.inc:                                          ; preds = %for.body
  %13 = load i64, ptr %i, align 8
  %inc = add i64 %13, 1
  store i64 %inc, ptr %i, align 8
  br label %for.cond, !llvm.loop !5

for.end:                                          ; preds = %for.cond
  ret void
}